; Function Attrs: mustprogress uwtable
define hidden void @_ZN11hwf_manager15display_decimalERSoRK3hwfj(ptr noundef nonnull readnone align 8 captures(none) dereferenceable(736) %0, ptr noundef nonnull align 8 dereferenceable(8) %1, ptr noundef nonnull readonly align 8 captures(none) dereferenceable(8) %2, i32 noundef %3) local_unnamed_addr #3 align 2 personality ptr @__gxx_personality_v0 {
  %5 = alloca %class.mpq_manager, align 8
  %6 = alloca %class._scoped_numeral, align 8
  call void @llvm.lifetime.start.p0(i64 728, ptr nonnull %5) #24
  call void @_ZN11mpz_managerILb0EEC2Ev(ptr noundef nonnull align 8 dereferenceable(728) %5)
  %7 = getelementptr inbounds nuw i8, ptr %5, i64 600
  store i32 0, ptr %7, align 8, !tbaa !3
  %8 = getelementptr inbounds nuw i8, ptr %5, i64 604
  %9 = load i8, ptr %8, align 4
  %10 = and i8 %9, -4
  store i8 %10, ptr %8, align 4
  %11 = getelementptr inbounds nuw i8, ptr %5, i64 608
  store ptr null, ptr %11, align 8, !tbaa !10
  %12 = getelementptr inbounds nuw i8, ptr %5, i64 616
  store i32 0, ptr %12, align 8, !tbaa !3
  %13 = getelementptr inbounds nuw i8, ptr %5, i64 620
  %14 = load i8, ptr %13, align 4
  %15 = and i8 %14, -4
  store i8 %15, ptr %13, align 4
  %16 = getelementptr inbounds nuw i8, ptr %5, i64 624
  store ptr null, ptr %16, align 8, !tbaa !10
  %17 = getelementptr inbounds nuw i8, ptr %5, i64 632
  store i32 0, ptr %17, align 8, !tbaa !3
  %18 = getelementptr inbounds nuw i8, ptr %5, i64 636
  %19 = load i8, ptr %18, align 4
  %20 = and i8 %19, -4
  store i8 %20, ptr %18, align 4
  %21 = getelementptr inbounds nuw i8, ptr %5, i64 640
  store ptr null, ptr %21, align 8, !tbaa !10
  %22 = getelementptr inbounds nuw i8, ptr %5, i64 648
  store i32 0, ptr %22, align 8, !tbaa !3
  %23 = getelementptr inbounds nuw i8, ptr %5, i64 652
  %24 = load i8, ptr %23, align 4
  %25 = and i8 %24, -4
  store i8 %25, ptr %23, align 4
  %26 = getelementptr inbounds nuw i8, ptr %5, i64 656
  store ptr null, ptr %26, align 8, !tbaa !10
  %27 = getelementptr inbounds nuw i8, ptr %5, i64 664
  store i32 0, ptr %27, align 8, !tbaa !3
  %28 = getelementptr inbounds nuw i8, ptr %5, i64 668
  %29 = load i8, ptr %28, align 4
  %30 = and i8 %29, -4
  store i8 %30, ptr %28, align 4
  %31 = getelementptr inbounds nuw i8, ptr %5, i64 672
  store ptr null, ptr %31, align 8, !tbaa !10
  %32 = getelementptr inbounds nuw i8, ptr %5, i64 680
  store i32 1, ptr %32, align 8, !tbaa !3
  %33 = getelementptr inbounds nuw i8, ptr %5, i64 684
  %34 = load i8, ptr %33, align 4
  %35 = and i8 %34, -4
  store i8 %35, ptr %33, align 4
  %36 = getelementptr inbounds nuw i8, ptr %5, i64 688
  store ptr null, ptr %36, align 8, !tbaa !10
  %37 = getelementptr inbounds nuw i8, ptr %5, i64 696
  store i32 0, ptr %37, align 8, !tbaa !3
  %38 = getelementptr inbounds nuw i8, ptr %5, i64 700
  %39 = load i8, ptr %38, align 4
  %40 = and i8 %39, -4
  store i8 %40, ptr %38, align 4
  %41 = getelementptr inbounds nuw i8, ptr %5, i64 704
  store ptr null, ptr %41, align 8, !tbaa !10
  %42 = getelementptr inbounds nuw i8, ptr %5, i64 712
  store i32 1, ptr %42, align 8, !tbaa !3
  %43 = getelementptr inbounds nuw i8, ptr %5, i64 716
  %44 = load i8, ptr %43, align 4
  %45 = and i8 %44, -4
  store i8 %45, ptr %43, align 4
  %46 = getelementptr inbounds nuw i8, ptr %5, i64 720
  store ptr null, ptr %46, align 8, !tbaa !10
  call void @llvm.lifetime.start.p0(i64 40, ptr nonnull %6) #24
  store ptr %5, ptr %6, align 8, !tbaa !67
  %47 = getelementptr inbounds nuw i8, ptr %6, i64 8
  store i32 0, ptr %47, align 8, !tbaa !3
  %48 = getelementptr inbounds nuw i8, ptr %6, i64 12
  store i8 0, ptr %48, align 4
  %49 = getelementptr inbounds nuw i8, ptr %6, i64 16
  store ptr null, ptr %49, align 8, !tbaa !10
  %50 = getelementptr inbounds nuw i8, ptr %6, i64 24
  store i32 1, ptr %50, align 8, !tbaa !3
  %51 = getelementptr inbounds nuw i8, ptr %6, i64 28
  store i8 0, ptr %51, align 4
  %52 = getelementptr inbounds nuw i8, ptr %6, i64 32
  store ptr null, ptr %52, align 8, !tbaa !10
  invoke void @_ZN11hwf_manager11to_rationalERK3hwfR11mpq_managerILb0EER3mpq(ptr nonnull align 8 poison, ptr noundef nonnull align 8 dereferenceable(8) %2, ptr noundef nonnull align 8 dereferenceable(728) %5, ptr noundef nonnull align 8 dereferenceable(32) %47)
          to label %_ZN11hwf_manager11to_rationalERK3hwfR15_scoped_numeralI11mpq_managerILb0EEE.exit unwind label %58

_ZN11hwf_manager11to_rationalERK3hwfR15_scoped_numeralI11mpq_managerILb0EEE.exit: ; preds = %4
  invoke void @_ZN11mpq_managerILb0EE15display_decimalERSoRK3mpqjb(ptr noundef nonnull align 8 dereferenceable(728) %5, ptr noundef nonnull align 8 dereferenceable(8) %1, ptr noundef nonnull align 8 dereferenceable(32) %47, i32 noundef %3, i1 noundef zeroext false)
          to label %53 unwind label %58

53:                                               ; preds = %_ZN11hwf_manager11to_rationalERK3hwfR15_scoped_numeralI11mpq_managerILb0EEE.exit
  %54 = load ptr, ptr %6, align 8, !tbaa !69
  invoke void @_ZN11mpz_managerILb0EE3delEPS0_R3mpz(ptr noundef nonnull align 8 dereferenceable(728) %54, ptr noundef nonnull align 8 dereferenceable(32) %47)
          to label %.noexc.i unwind label %55

.noexc.i:                                         ; preds = %53
  invoke void @_ZN11mpz_managerILb0EE3delEPS0_R3mpz(ptr noundef nonnull align 8 dereferenceable(728) %54, ptr noundef nonnull align 8 dereferenceable(16) %50)
          to label %_ZN15_scoped_numeralI11mpq_managerILb0EEED2Ev.exit unwind label %55

55:                                               ; preds = %.noexc.i, %53
  %56 = landingpad { ptr, i32 }
          catch ptr null
  %57 = extractvalue { ptr, i32 } %56, 0
  call void @__clang_call_terminate(ptr %57) #28
  unreachable

_ZN15_scoped_numeralI11mpq_managerILb0EEED2Ev.exit: ; preds = %.noexc.i
  call void @llvm.lifetime.end.p0(i64 40, ptr nonnull %6) #24
  call void @_ZN11mpq_managerILb0EED1Ev(ptr noundef nonnull align 8 dereferenceable(728) %5) #24
  call void @llvm.lifetime.end.p0(i64 728, ptr nonnull %5) #24
  ret void

58:                                               ; preds = %4, %_ZN11hwf_manager11to_rationalERK3hwfR15_scoped_numeralI11mpq_managerILb0EEE.exit
  %59 = landingpad { ptr, i32 }
          cleanup
  call void @_ZN15_scoped_numeralI11mpq_managerILb0EEED2Ev(ptr noundef nonnull align 8 dereferenceable(40) %6) #24
  call void @llvm.lifetime.end.p0(i64 40, ptr nonnull %6) #24
  call void @_ZN11mpq_managerILb0EED1Ev(ptr noundef nonnull align 8 dereferenceable(728) %5) #24
  call void @llvm.lifetime.end.p0(i64 728, ptr nonnull %5) #24
  resume { ptr, i32 } %59
}